; Function Attrs: mustprogress uwtable
define internal void @"_ZN4pbrt4$_418__invokeERNS_16StatsAccumulatorE"(ptr noundef nonnull align 8 dereferenceable(8) %accum) #1 align 2 {
entry:
  %0 = tail call align 8 ptr @llvm.threadlocal.address.p0(ptr align 8 @_ZN4pbrtL20visiblePointsCheckedE)
  %1 = load i64, ptr %0, align 8
  %2 = tail call align 8 ptr @llvm.threadlocal.address.p0(ptr align 8 @_ZN4pbrtL30totalPhotonSurfaceInteractionsE)
  %3 = load i64, ptr %2, align 8
  tail call void @_ZN4pbrt16StatsAccumulator11ReportRatioEPKcll(ptr noundef nonnull align 8 dereferenceable(8) %accum, ptr noundef nonnull @.str.166, i64 noundef %1, i64 noundef %3)
  store i64 0, ptr %0, align 8
  store i64 0, ptr %2, align 8
  ret void
}